target datalayout = "e-m:e-p270:32:32-p271:32:32-p272:64:64-i64:64-i128:128-f80:128-n8:16:32:64-S128"
target triple = "x86_64-pc-linux-gnu"

%struct.BackendGlobalData = type <{ ptr, ptr, i8, i8, i8, i8, i8, i8, i8, i8, i8, [3 x i8], i32, ptr, ptr, ptr, ptr, ptr, ptr, ptr, ptr, ptr, ptr, ptr, ptr, ptr, i32, %struct.jvmtiCapabilities, i8, [3 x i8], %struct.jvmtiEventCallbacks, ptr, ptr, ptr, ptr, ptr, ptr, ptr, i32, [4 x i8], ptr, i64, i32, [4 x i8], ptr, i32, i32, i8, i8, [6 x i8] }>
%struct.jvmtiCapabilities = type { i64, i64 }
%struct.jvmtiEventCallbacks = type { ptr, ptr, ptr, ptr, ptr, ptr, ptr, ptr, ptr, ptr, ptr, ptr, ptr, ptr, ptr, ptr, ptr, ptr, ptr, ptr, ptr, ptr, ptr, ptr, ptr, ptr, ptr, ptr, ptr, ptr, ptr, ptr, ptr, ptr, ptr, ptr, ptr, ptr, ptr }
%struct.EventInfo = type { i32, ptr, i8, ptr, ptr, i64, ptr, %union.anon }
%union.anon = type { %struct.anon.0 }
%struct.anon.0 = type { ptr, ptr, i8, %union.jvalue }
%union.jvalue = type { i64 }

@stderr = external global ptr, align 8
@.str = private unnamed_addr constant [17 x i8] c"JDWP exit error \00", align 1
@.str.1 = private unnamed_addr constant [2 x i8] c"\0A\00", align 1
@.str.2 = private unnamed_addr constant [19 x i8] c"%s(%d): %s [%s:%d]\00", align 1
@.str.4 = private unnamed_addr constant [55 x i8] c"src/jdk.jdwp.agent/share/native/libjdwp/eventHandler.c\00", align 1
@gdata = external global ptr, align 8
@.str.6 = private unnamed_addr constant [42 x i8] c"Can't get jclass for a methodID, invalid?\00", align 1
@active_callbacks = internal global i32 0, align 4
@vm_death_callback_active = internal global i8 0, align 1
@callbackLock = internal global ptr null, align 8
@callbackBlock = internal global ptr null, align 8
@.str.25 = private unnamed_addr constant [5 x i8] c"MISC\00", align 1
@.str.28 = private unnamed_addr constant [3 x i8] c"CB\00", align 1
@.str.29 = private unnamed_addr constant [24 x i8] c"cbSingleStep: thread=%p\00", align 1
@.str.30 = private unnamed_addr constant [35 x i8] c"Problems tracking active callbacks\00", align 1
@.str.31 = private unnamed_addr constant [17 x i8] c"END cbSingleStep\00", align 1

; Function Attrs: nounwind uwtable
define hidden ptr @getMethodClass(ptr noundef %0, ptr noundef %1) #0 {
  %3 = alloca ptr, align 8
  %4 = alloca ptr, align 8
  %5 = alloca ptr, align 8
  %6 = alloca ptr, align 8
  %7 = alloca i32, align 4
  store ptr %0, ptr %4, align 8
  store ptr %1, ptr %5, align 8
  store ptr null, ptr %6, align 8
  %8 = load ptr, ptr %5, align 8
  %9 = icmp eq ptr %8, null
  br i1 %9, label %10, label %11

10:                                               ; preds = %2
  store ptr null, ptr %3, align 8
  br label %24

11:                                               ; preds = %2
  %12 = load ptr, ptr %5, align 8
  %13 = call i32 @methodClass(ptr noundef %12, ptr noundef %6)
  store i32 %13, ptr %7, align 4
  %14 = load i32, ptr %7, align 4
  %15 = icmp ne i32 %14, 0
  br i1 %15, label %16, label %22

16:                                               ; preds = %11
  %17 = load ptr, ptr @stderr, align 8
  %18 = load i32, ptr %7, align 4
  %19 = call ptr @jvmtiErrorText(i32 noundef %18)
  %20 = load i32, ptr %7, align 4
  call void (ptr, ptr, ptr, ptr, ...) @print_message(ptr noundef %17, ptr noundef @.str, ptr noundef @.str.1, ptr noundef @.str.2, ptr noundef %19, i32 noundef %20, ptr noundef @.str.6, ptr noundef @.str.4, i32 noundef 728)
  %21 = load i32, ptr %7, align 4
  call void @debugInit_exit(i32 noundef %21, ptr noundef @.str.6)
  store ptr null, ptr %3, align 8
  br label %24

22:                                               ; preds = %11
  %23 = load ptr, ptr %6, align 8
  store ptr %23, ptr %3, align 8
  br label %24

24:                                               ; preds = %22, %16, %10
  %25 = load ptr, ptr %3, align 8
  ret ptr %25
}

; Function Attrs: nounwind uwtable
define internal void @cbSingleStep(ptr noundef %0, ptr noundef %1, ptr noundef %2, ptr noundef %3, i64 noundef %4) #0 {
  %6 = alloca ptr, align 8
  %7 = alloca ptr, align 8
  %8 = alloca ptr, align 8
  %9 = alloca ptr, align 8
  %10 = alloca i64, align 8
  %11 = alloca %struct.EventInfo, align 8
  %12 = alloca i8, align 1
  store ptr %0, ptr %6, align 8
  store ptr %1, ptr %7, align 8
  store ptr %2, ptr %8, align 8
  store ptr %3, ptr %9, align 8
  store i64 %4, ptr %10, align 8
  %13 = load ptr, ptr @gdata, align 8
  %14 = getelementptr inbounds %struct.BackendGlobalData, ptr %13, i32 0, i32 38
  %15 = load i32, ptr %14, align 8
  %16 = and i32 %15, 64
  %17 = icmp ne i32 %16, 0
  br i1 %17, label %18, label %20

18:                                               ; preds = %5
  call void @log_message_begin(ptr noundef @.str.28, ptr noundef @.str.4, i32 noundef 741)
  %19 = load ptr, ptr %8, align 8
  call void (ptr, ...) @log_message_end(ptr noundef @.str.29, ptr noundef %19)
  br label %21

20:                                               ; preds = %5
  br label %21

21:                                               ; preds = %20, %18
  store i8 1, ptr %12, align 1
  %22 = load ptr, ptr @callbackLock, align 8
  call void @debugMonitorEnter(ptr noundef %22)
  %23 = load i8, ptr @vm_death_callback_active, align 1
  %24 = icmp ne i8 %23, 0
  br i1 %24, label %25, label %29

25:                                               ; preds = %21
  %26 = load ptr, ptr @callbackLock, align 8
  call void @debugMonitorExit(ptr noundef %26)
  %27 = load ptr, ptr @callbackBlock, align 8
  call void @debugMonitorEnter(ptr noundef %27)
  %28 = load ptr, ptr @callbackBlock, align 8
  call void @debugMonitorExit(ptr noundef %28)
  br label %33

29:                                               ; preds = %21
  %30 = load i32, ptr @active_callbacks, align 4
  %31 = add nsw i32 %30, 1
  store i32 %31, ptr @active_callbacks, align 4
  store i8 0, ptr %12, align 1
  %32 = load ptr, ptr @callbackLock, align 8
  call void @debugMonitorExit(ptr noundef %32)
  br label %33

33:                                               ; preds = %29, %25
  %34 = load i8, ptr %12, align 1
  %35 = icmp ne i8 %34, 0
  br i1 %35, label %77, label %36

36:                                               ; preds = %33
  call void @llvm.memset.p0.i64(ptr align 8 %11, i8 0, i64 88, i1 false)
  %37 = getelementptr inbounds %struct.EventInfo, ptr %11, i32 0, i32 0
  store i32 1, ptr %37, align 8
  %38 = load ptr, ptr %8, align 8
  %39 = getelementptr inbounds %struct.EventInfo, ptr %11, i32 0, i32 1
  store ptr %38, ptr %39, align 8
  %40 = load ptr, ptr %6, align 8
  %41 = load ptr, ptr %9, align 8
  %42 = call ptr @getMethodClass(ptr noundef %40, ptr noundef %41)
  %43 = getelementptr inbounds %struct.EventInfo, ptr %11, i32 0, i32 3
  store ptr %42, ptr %43, align 8
  %44 = load ptr, ptr %9, align 8
  %45 = getelementptr inbounds %struct.EventInfo, ptr %11, i32 0, i32 4
  store ptr %44, ptr %45, align 8
  %46 = load i64, ptr %10, align 8
  %47 = getelementptr inbounds %struct.EventInfo, ptr %11, i32 0, i32 5
  store i64 %46, ptr %47, align 8
  %48 = load ptr, ptr %7, align 8
  call void @event_callback(ptr noundef %48, ptr noundef %11)
  %49 = load ptr, ptr @callbackLock, align 8
  call void @debugMonitorEnter(ptr noundef %49)
  %50 = load i32, ptr @active_callbacks, align 4
  %51 = add nsw i32 %50, -1
  store i32 %51, ptr @active_callbacks, align 4
  %52 = load i32, ptr @active_callbacks, align 4
  %53 = icmp slt i32 %52, 0
  br i1 %53, label %54, label %57

54:                                               ; preds = %36
  %55 = load ptr, ptr @stderr, align 8
  %56 = call ptr @jvmtiErrorText(i32 noundef 0)
  call void (ptr, ptr, ptr, ptr, ...) @print_message(ptr noundef %55, ptr noundef @.str, ptr noundef @.str.1, ptr noundef @.str.2, ptr noundef %56, i32 noundef 0, ptr noundef @.str.30, ptr noundef @.str.4, i32 noundef 751)
  call void @debugInit_exit(i32 noundef 0, ptr noundef @.str.30)
  br label %57

57:                                               ; preds = %54, %36
  %58 = load i8, ptr @vm_death_callback_active, align 1
  %59 = icmp ne i8 %58, 0
  br i1 %59, label %60, label %69

60:                                               ; preds = %57
  %61 = load i32, ptr @active_callbacks, align 4
  %62 = icmp eq i32 %61, 0
  br i1 %62, label %63, label %65

63:                                               ; preds = %60
  %64 = load ptr, ptr @callbackLock, align 8
  call void @debugMonitorNotifyAll(ptr noundef %64)
  br label %65

65:                                               ; preds = %63, %60
  %66 = load ptr, ptr @callbackLock, align 8
  call void @debugMonitorExit(ptr noundef %66)
  %67 = load ptr, ptr @callbackBlock, align 8
  call void @debugMonitorEnter(ptr noundef %67)
  %68 = load ptr, ptr @callbackBlock, align 8
  call void @debugMonitorExit(ptr noundef %68)
  br label %76

69:                                               ; preds = %57
  %70 = load i32, ptr @active_callbacks, align 4
  %71 = icmp eq i32 %70, 0
  br i1 %71, label %72, label %74

72:                                               ; preds = %69
  %73 = load ptr, ptr @callbackLock, align 8
  call void @debugMonitorNotifyAll(ptr noundef %73)
  br label %74

74:                                               ; preds = %72, %69
  %75 = load ptr, ptr @callbackLock, align 8
  call void @debugMonitorExit(ptr noundef %75)
  br label %76

76:                                               ; preds = %74, %65
  br label %77

77:                                               ; preds = %76, %33
  %78 = load ptr, ptr @gdata, align 8
  %79 = getelementptr inbounds %struct.BackendGlobalData, ptr %78, i32 0, i32 38
  %80 = load i32, ptr %79, align 8
  %81 = and i32 %80, 8
  %82 = icmp ne i32 %81, 0
  br i1 %82, label %83, label %84

83:                                               ; preds = %77
  call void @log_message_begin(ptr noundef @.str.25, ptr noundef @.str.4, i32 noundef 753)
  call void (ptr, ...) @log_message_end(ptr noundef @.str.31)
  br label %85

84:                                               ; preds = %77
  br label %85

85:                                               ; preds = %84, %83
  ret void
}